; Function Attrs: mustprogress nounwind uwtable
define hidden void @_ZN10DFSClosure6do_oopEP9narrowOop(ptr noundef nonnull align 8 dereferenceable(57) %0, ptr noundef %1) unnamed_addr #0 align 2 {
  %3 = load ptr, ptr @_ZN14AccessInternal15RuntimeDispatchILm282726EP7oopDescLNS_11BarrierTypeE2EE10_load_funcE, align 8
  %4 = tail call noundef ptr %3(ptr noundef %1) #12
  %.not = icmp eq ptr %4, null
  br i1 %.not, label %9, label %5

5:                                                ; preds = %2
  %6 = ptrtoint ptr %1 to i64
  %7 = shl i64 %6, 1
  %8 = or i64 %7, 4
  tail call void @_ZN10DFSClosure12closure_implE13UnifiedOopRefP7oopDesc(ptr noundef nonnull align 8 dereferenceable(57) %0, i64 %8, ptr noundef nonnull %4)
  br label %9

9:                                                ; preds = %5, %2
  ret void
}